	.text
	.file	"out.o.linked"
	.file	1 "/usr/lib/gcc/x86_64-redhat-linux/4.8.5/../../../../include/c++/4.8.5/x86_64-redhat-linux/bits/c++config.h"
	.file	2 "/usr/lib/gcc/x86_64-redhat-linux/4.8.5/../../../../include/c++/4.8.5/x86_64-redhat-linux/bits/atomic_word.h"
	.file	3 "/usr/lib/gcc/x86_64-redhat-linux/4.8.5/../../../../include/c++/4.8.5/bits/ios_base.h"
	.file	4 "/usr/lib/gcc/x86_64-redhat-linux/4.8.5/../../../../include/c++/4.8.5/iostream"
	.file	5 "lalala.cpp"
	.file	6 "/usr/lib/gcc/x86_64-redhat-linux/4.8.5/../../../../include/c++/4.8.5/debug/debug.h"
	.file	7 "/usr/include/wchar.h"
	.file	8 "/usr/local/bin/../lib/clang/3.8.1/include/stddef.h"
	.file	9 "/usr/include/stdio.h"
	.file	10 "/usr/lib/gcc/x86_64-redhat-linux/4.8.5/../../../../include/c++/4.8.5/bits/cpp_type_traits.h"
	.file	11 "/usr/include/locale.h"
	.file	12 "/usr/include/ctype.h"
	.file	13 "/usr/include/bits/types.h"
	.file	14 "/usr/include/wctype.h"
	.section	.text.startup,"ax",@progbits
	.align	16, 0x90
	.type	_GLOBAL__sub_I_lalala.cpp,@function
_GLOBAL__sub_I_lalala.cpp:              # @_GLOBAL__sub_I_lalala.cpp
.Lfunc_begin0:
	.loc	5 0 0                   # lalala.cpp:0:0
	.cfi_startproc
# BB#0:                                 # %entry
	pushq	%rbp
.Ltmp0:
	.cfi_def_cfa_offset 16
.Ltmp1:
	.cfi_offset %rbp, -16
	movq	%rsp, %rbp
.Ltmp2:
	.cfi_def_cfa_register %rbp
	.loc	5 0 0 prologue_end      # lalala.cpp:0:0
.Ltmp3:
	callq	__cxx_global_var_init
	popq	%rbp
	retq
.Ltmp4:
.Lfunc_end0:
	.size	_GLOBAL__sub_I_lalala.cpp, .Lfunc_end0-_GLOBAL__sub_I_lalala.cpp
	.cfi_endproc

	.align	16, 0x90
	.type	__cxx_global_var_init,@function
__cxx_global_var_init:                  # @__cxx_global_var_init
.Lfunc_begin1:
	.loc	4 74 0                  # /usr/lib/gcc/x86_64-redhat-linux/4.8.5/../../../../include/c++/4.8.5/iostream:74:0
	.cfi_startproc
# BB#0:                                 # %entry
	pushq	%rbp
.Ltmp5:
	.cfi_def_cfa_offset 16
.Ltmp6:
	.cfi_offset %rbp, -16
	movq	%rsp, %rbp
.Ltmp7:
	.cfi_def_cfa_register %rbp
	.loc	4 74 25 prologue_end    # /usr/lib/gcc/x86_64-redhat-linux/4.8.5/../../../../include/c++/4.8.5/iostream:74:25
.Ltmp8:
	movl	$_ZStL8__ioinit, %edi
	callq	_ZNSt8ios_base4InitC1Ev
	.loc	4 74 25 is_stmt 0 discriminator 1 # /usr/lib/gcc/x86_64-redhat-linux/4.8.5/../../../../include/c++/4.8.5/iostream:74:25
	movl	$_ZNSt8ios_base4InitD1Ev, %edi
	.loc	4 74 25                 # /usr/lib/gcc/x86_64-redhat-linux/4.8.5/../../../../include/c++/4.8.5/iostream:74:25
	movl	$_ZStL8__ioinit, %esi
	.loc	4 74 25 discriminator 1 # /usr/lib/gcc/x86_64-redhat-linux/4.8.5/../../../../include/c++/4.8.5/iostream:74:25
	movl	$__dso_handle, %edx
	callq	__cxa_atexit
	.loc	4 74 25                 # /usr/lib/gcc/x86_64-redhat-linux/4.8.5/../../../../include/c++/4.8.5/iostream:74:25
	popq	%rbp
	retq
.Ltmp9:
.Lfunc_end1:
	.size	__cxx_global_var_init, .Lfunc_end1-__cxx_global_var_init
	.cfi_endproc

	.text
	.globl	main
	.align	16, 0x90
	.type	main,@function
main:                                   # @main
.Lfunc_begin2:
	.loc	5 36 0 is_stmt 1        # lalala.cpp:36:0
	.cfi_startproc
# BB#0:                                 # %entry
	pushq	%rbp
.Ltmp10:
	.cfi_def_cfa_offset 16
.Ltmp11:
	.cfi_offset %rbp, -16
	movq	%rsp, %rbp
.Ltmp12:
	.cfi_def_cfa_register %rbp
	pushq	%r15
	pushq	%r14
	pushq	%r12
	pushq	%rbx
	subq	$128, %rsp
.Ltmp13:
	.cfi_offset %rbx, -48
.Ltmp14:
	.cfi_offset %r12, -40
.Ltmp15:
	.cfi_offset %r14, -32
.Ltmp16:
	.cfi_offset %r15, -24
	leaq	-36(%rbp), %rsi
	movl	$1, %edi
	movl	$.L.str.1, %edx
	movl	$.L.str.2, %ecx
	callq	trace
	movl	$0, -36(%rbp)
	leaq	-56(%rbp), %rdi
	.loc	5 37 7 prologue_end     # lalala.cpp:37:7
.Ltmp17:
	movl	$2, %esi
	callq	_ZN1AC2Ei
	leaq	-72(%rbp), %r12
	.loc	5 38 7                  # lalala.cpp:38:7
	movl	$3, %esi
	movq	%r12, %rdi
	callq	_ZN1BC2Ei
	leaq	-88(%rbp), %rdi
	movl	$3, %esi
	.loc	5 39 11                 # lalala.cpp:39:11
	callq	_ZN1BC2Ei
	leaq	-112(%rbp), %r14
	.loc	5 40 7                  # lalala.cpp:40:7
	movl	$6, %esi
	movq	%r14, %rdi
	callq	_ZN1MC2Ei
	leaq	-128(%rbp), %rdi
	.loc	5 41 7                  # lalala.cpp:41:7
	movl	$10, %esi
	callq	_ZN1AC2Ei
	.loc	5 42 11                 # lalala.cpp:42:11
	movl	$24, %edi
	callq	_Znwm
	movq	%rax, %rbx
	.loc	5 41 7                  # lalala.cpp:41:7
	movl	$10, %esi
	.loc	5 42 15 discriminator 1 # lalala.cpp:42:15
	movq	%rbx, %rdi
	callq	_ZN1MC2Ei
	leaq	-136(%rbp), %r15
	movl	$1, %edi
	.loc	5 42 8 is_stmt 0        # lalala.cpp:42:8
	movl	$.L.str.3, %edx
	movl	$.L.str.4, %ecx
	movq	%r15, %rsi
	callq	trace
	movq	%rbx, -136(%rbp)
	leaq	-144(%rbp), %rsi
	movl	$1, %edi
	.loc	5 43 8 is_stmt 1        # lalala.cpp:43:8
	movl	$.L.str.5, %edx
	movl	$.L.str.6, %ecx
	callq	trace
	movq	%r12, -144(%rbp)
	.loc	5 44 11                 # lalala.cpp:44:11
	leaq	-48(%rbp), %r12
	.loc	5 37 7                  # lalala.cpp:37:7
	movl	$2, %edi
	.loc	5 44 11                 # lalala.cpp:44:11
	movl	$.L.str.7, %edx
	movl	$.L.str.8, %ecx
	movq	%r12, %rsi
	callq	trace
	movl	-48(%rbp), %ebx
	.loc	5 44 12 is_stmt 0       # lalala.cpp:44:12
	addl	$10, %ebx
	movl	$1, %edi
	.loc	5 44 8                  # lalala.cpp:44:8
	movl	$.L.str.9, %edx
	movl	$.L.str.10, %ecx
	movq	%r12, %rsi
	callq	trace
	movl	%ebx, -48(%rbp)
	.loc	5 45 11 is_stmt 1       # lalala.cpp:45:11
	movl	-64(%rbp), %ebx
	.loc	5 45 12 is_stmt 0       # lalala.cpp:45:12
	incl	%ebx
	.loc	5 45 7                  # lalala.cpp:45:7
	leaq	-60(%rbp), %rsi
	movl	$1, %edi
	.loc	5 45 8                  # lalala.cpp:45:8
	movl	$.L.str.11, %edx
	movl	$.L.str.12, %ecx
	callq	trace
	movl	%ebx, -60(%rbp)
	.loc	5 46 7 is_stmt 1        # lalala.cpp:46:7
	leaq	-76(%rbp), %rsi
	movl	$1, %edi
	.loc	5 46 8 is_stmt 0        # lalala.cpp:46:8
	movl	$.L.str.13, %edx
	movl	$.L.str.14, %ecx
	callq	trace
	movl	$5, -76(%rbp)
	.loc	5 37 7 is_stmt 1        # lalala.cpp:37:7
	movl	$2, %edi
	.loc	5 47 8                  # lalala.cpp:47:8
	movl	$.L.str.15, %edx
	movl	$.L.str.16, %ecx
	movq	%r14, %rsi
	callq	trace
	movl	-112(%rbp), %ebx
	incl	%ebx
	movl	$1, %edi
	movl	$.L.str.17, %edx
	movl	$.L.str.18, %ecx
	movq	%r14, %rsi
	callq	trace
	movl	%ebx, -112(%rbp)
	.loc	5 48 15                 # lalala.cpp:48:15
	leaq	-92(%rbp), %r14
	.loc	5 37 7                  # lalala.cpp:37:7
	movl	$2, %edi
	.loc	5 48 15                 # lalala.cpp:48:15
	movl	$.L.str.19, %edx
	movl	$.L.str.20, %ecx
	movq	%r14, %rsi
	callq	trace
	movl	-92(%rbp), %ebx
	.loc	5 48 16 is_stmt 0       # lalala.cpp:48:16
	addl	$10, %ebx
	movl	$1, %edi
	.loc	5 48 10                 # lalala.cpp:48:10
	movl	$.L.str.21, %edx
	movl	$.L.str.22, %ecx
	movq	%r14, %rsi
	callq	trace
	movl	%ebx, -92(%rbp)
	leaq	-148(%rbp), %r14
	movl	$1, %edi
	.loc	5 49 13 is_stmt 1       # lalala.cpp:49:13
.Ltmp18:
	movl	$.L.str.23, %edx
	movl	$.L.str.24, %ecx
	movq	%r14, %rsi
	callq	trace
	movl	$0, -148(%rbp)
	jmp	.LBB2_1
.Ltmp19:
	.align	16, 0x90
.LBB2_2:                                # %for.inc
                                        #   in Loop: Header=BB2_1 Depth=1
	.loc	5 37 7                  # lalala.cpp:37:7
	movl	$2, %edi
	.loc	5 50 9                  # lalala.cpp:50:9
.Ltmp20:
	movl	$.L.str.27, %edx
	movl	$.L.str.28, %ecx
	movq	%r15, %rsi
	callq	trace
	movq	-136(%rbp), %rax
	.loc	5 50 13 is_stmt 0       # lalala.cpp:50:13
	incl	(%rax)
.Ltmp21:
	.loc	5 37 7 is_stmt 1        # lalala.cpp:37:7
	movl	$2, %edi
	.loc	5 51 9                  # lalala.cpp:51:9
.Ltmp22:
	movl	$.L.str.29, %edx
	movl	$.L.str.30, %ecx
	movq	%r15, %rsi
	callq	trace
	movq	-136(%rbp), %rax
	.loc	5 51 15 is_stmt 0       # lalala.cpp:51:15
	addl	$7, 20(%rax)
.Ltmp23:
	.loc	5 37 7 is_stmt 1        # lalala.cpp:37:7
	movl	$2, %edi
	.loc	5 49 23 discriminator 2 # lalala.cpp:49:23
.Ltmp24:
	movl	$.L.str.31, %edx
	movl	$.L.str.32, %ecx
	movq	%r14, %rsi
	callq	trace
	movl	-148(%rbp), %ebx
	incl	%ebx
	movl	$1, %edi
	movl	$.L.str.33, %edx
	movl	$.L.str.34, %ecx
	movq	%r14, %rsi
	callq	trace
	movl	%ebx, -148(%rbp)
.Ltmp25:
.LBB2_1:                                # %for.cond
                                        # =>This Inner Loop Header: Depth=1
	.loc	5 37 7                  # lalala.cpp:37:7
	movl	$2, %edi
	.loc	5 49 17 discriminator 1 # lalala.cpp:49:17
.Ltmp26:
	movl	$.L.str.25, %edx
	movl	$.L.str.26, %ecx
	movq	%r14, %rsi
	callq	trace
	.loc	5 49 5 is_stmt 0 discriminator 1 # lalala.cpp:49:5
	cmpl	$9, -148(%rbp)
	jle	.LBB2_2
.Ltmp27:
# BB#3:                                 # %for.end
	leaq	-144(%rbp), %rsi
	.loc	5 53 5 is_stmt 1        # lalala.cpp:53:5
	movl	$2, %edi
	movl	$.L.str.35, %edx
	movl	$.L.str.36, %ecx
	callq	trace
	movq	-144(%rbp), %rdi
	movq	(%rdi), %rax
	callq	*(%rax)
	leaq	-112(%rbp), %rdi
	.loc	5 54 5                  # lalala.cpp:54:5
	callq	_ZN1M5printEv
	leaq	-136(%rbp), %rbx
	.loc	5 53 5                  # lalala.cpp:53:5
	movl	$2, %edi
	.loc	5 55 5                  # lalala.cpp:55:5
	movl	$.L.str.37, %edx
	movl	$.L.str.38, %ecx
	movq	%rbx, %rsi
	callq	trace
	movq	-136(%rbp), %rdi
	callq	_ZN1M5printEv
	.loc	5 56 14                 # lalala.cpp:56:14
	movl	c1(%rip), %esi
	.loc	5 56 9 is_stmt 0        # lalala.cpp:56:9
	movl	$_ZSt4cout, %edi
	callq	_ZNSolsEi
	.loc	5 56 15 discriminator 1 # lalala.cpp:56:15
	movl	$.L.str, %esi
	movq	%rax, %rdi
	callq	_ZStlsISt11char_traitsIcEERSt13basic_ostreamIcT_ES5_PKc
	.loc	5 56 26                 # lalala.cpp:56:26
	movss	c1+4(%rip), %xmm0       # xmm0 = mem[0],zero,zero,zero
	.loc	5 56 21 discriminator 2 # lalala.cpp:56:21
	movq	%rax, %rdi
	callq	_ZNSolsEf
	.loc	5 56 27 discriminator 3 # lalala.cpp:56:27
	movl	$_ZSt4endlIcSt11char_traitsIcEERSt13basic_ostreamIT_T0_ES6_, %esi
	movq	%rax, %rdi
	callq	_ZNSolsEPFRSoS_E
	.loc	5 53 5 is_stmt 1        # lalala.cpp:53:5
	movl	$2, %edi
	.loc	5 57 12                 # lalala.cpp:57:12
	movl	$.L.str.39, %edx
	movl	$.L.str.40, %ecx
	movq	%rbx, %rsi
	callq	trace
	movq	-136(%rbp), %rbx
	.loc	5 57 5 is_stmt 0        # lalala.cpp:57:5
	testq	%rbx, %rbx
	je	.LBB2_5
# BB#4:                                 # %delete.notnull
	.loc	5 57 5 discriminator 1  # lalala.cpp:57:5
	movq	%rbx, %rdi
	callq	_ZN1MD2Ev
	.loc	5 57 5 discriminator 2  # lalala.cpp:57:5
.Ltmp28:
	movq	%rbx, %rdi
	callq	_ZdlPv
.Ltmp29:
.LBB2_5:                                # %delete.end
	leaq	-128(%rbp), %rdi
	.loc	5 58 1 is_stmt 1        # lalala.cpp:58:1
	callq	_ZN1AD2Ev
	leaq	-112(%rbp), %rdi
	.loc	5 58 1 is_stmt 0 discriminator 1 # lalala.cpp:58:1
	callq	_ZN1MD2Ev
	leaq	-88(%rbp), %rdi
	.loc	5 58 1 discriminator 2  # lalala.cpp:58:1
	callq	_ZN1BD2Ev
	leaq	-72(%rbp), %rdi
	.loc	5 58 1 discriminator 3  # lalala.cpp:58:1
	callq	_ZN1BD2Ev
	leaq	-56(%rbp), %rdi
	.loc	5 58 1 discriminator 4  # lalala.cpp:58:1
	callq	_ZN1AD2Ev
	leaq	-36(%rbp), %rsi
	.loc	5 58 1                  # lalala.cpp:58:1
	movl	$2, %edi
	movl	$.L.str.41, %edx
	movl	$.L.str.42, %ecx
	callq	trace
	movl	-36(%rbp), %eax
	addq	$128, %rsp
	popq	%rbx
	popq	%r12
	popq	%r14
	popq	%r15
	popq	%rbp
	retq
.Ltmp30:
.Lfunc_end2:
	.size	main, .Lfunc_end2-main
	.cfi_endproc

	.section	.text._ZN1AC2Ei,"axG",@progbits,_ZN1AC2Ei,comdat
	.weak	_ZN1AC2Ei
	.align	16, 0x90
	.type	_ZN1AC2Ei,@function
_ZN1AC2Ei:                              # @_ZN1AC2Ei
.Lfunc_begin3:
	.loc	5 8 0 is_stmt 1         # lalala.cpp:8:0
	.cfi_startproc
# BB#0:                                 # %entry
	pushq	%rbp
.Ltmp31:
	.cfi_def_cfa_offset 16
.Ltmp32:
	.cfi_offset %rbp, -16
	movq	%rsp, %rbp
.Ltmp33:
	.cfi_def_cfa_register %rbp
	pushq	%r14
	pushq	%rbx
	subq	$16, %rsp
.Ltmp34:
	.cfi_offset %rbx, -32
.Ltmp35:
	.cfi_offset %r14, -24
	#DEBUG_VALUE: A:this <- [%RBP+-24]
	#DEBUG_VALUE: A:var <- [%RBP+-28]
	movq	%rdi, -24(%rbp)
	movl	%esi, -28(%rbp)
	movq	-24(%rbp), %rbx
	.loc	5 8 22 prologue_end     # lalala.cpp:8:22
.Ltmp36:
	movq	$_ZTV1A+16, (%rbx)
	.loc	5 8 16 is_stmt 0        # lalala.cpp:8:16
	leaq	8(%rbx), %rsi
	.loc	5 8 18                  # lalala.cpp:8:18
	movl	-28(%rbp), %r14d
	.loc	5 8 16                  # lalala.cpp:8:16
	movl	$1, %edi
	movl	$.L.str.43, %edx
	movl	$.L.str.44, %ecx
	callq	trace
	movl	%r14d, 8(%rbx)
	.loc	5 8 23                  # lalala.cpp:8:23
	addq	$16, %rsp
	popq	%rbx
	popq	%r14
	popq	%rbp
	retq
.Ltmp37:
.Lfunc_end3:
	.size	_ZN1AC2Ei, .Lfunc_end3-_ZN1AC2Ei
	.cfi_endproc

	.section	.text._ZN1A5printEv,"axG",@progbits,_ZN1A5printEv,comdat
	.weak	_ZN1A5printEv
	.align	16, 0x90
	.type	_ZN1A5printEv,@function
_ZN1A5printEv:                          # @_ZN1A5printEv
.Lfunc_begin4:
	.loc	5 10 0 is_stmt 1        # lalala.cpp:10:0
	.cfi_startproc
# BB#0:                                 # %entry
	pushq	%rbp
.Ltmp38:
	.cfi_def_cfa_offset 16
.Ltmp39:
	.cfi_offset %rbp, -16
	movq	%rsp, %rbp
.Ltmp40:
	.cfi_def_cfa_register %rbp
	pushq	%rbx
	pushq	%rax
.Ltmp41:
	.cfi_offset %rbx, -24
	movq	%rdi, %rbx
	#DEBUG_VALUE: print:this <- [%RBP+-16]
	movq	%rbx, -16(%rbp)
	.loc	5 10 32 prologue_end    # lalala.cpp:10:32
.Ltmp42:
	leaq	8(%rbx), %rsi
	movl	$2, %edi
	movl	$.L.str.53, %edx
	movl	$.L.str.54, %ecx
	callq	trace
	movl	8(%rbx), %esi
	.loc	5 10 30 is_stmt 0       # lalala.cpp:10:30
	movl	$_ZSt4cout, %edi
	callq	_ZNSolsEi
	.loc	5 10 33 discriminator 1 # lalala.cpp:10:33
	movl	$_ZSt4endlIcSt11char_traitsIcEERSt13basic_ostreamIT_T0_ES6_, %esi
	movq	%rax, %rdi
	callq	_ZNSolsEPFRSoS_E
	.loc	5 10 40                 # lalala.cpp:10:40
	addq	$8, %rsp
	popq	%rbx
	popq	%rbp
	retq
.Ltmp43:
.Lfunc_end4:
	.size	_ZN1A5printEv, .Lfunc_end4-_ZN1A5printEv
	.cfi_endproc

	.section	.text._ZN1AD2Ev,"axG",@progbits,_ZN1AD2Ev,comdat
	.weak	_ZN1AD2Ev
	.align	16, 0x90
	.type	_ZN1AD2Ev,@function
_ZN1AD2Ev:                              # @_ZN1AD2Ev
.Lfunc_begin5:
	.loc	5 11 0 is_stmt 1        # lalala.cpp:11:0
	.cfi_startproc
# BB#0:                                 # %entry
	pushq	%rbp
.Ltmp44:
	.cfi_def_cfa_offset 16
.Ltmp45:
	.cfi_offset %rbp, -16
	movq	%rsp, %rbp
.Ltmp46:
	.cfi_def_cfa_register %rbp
	#DEBUG_VALUE: ~A:this <- [%RBP+-8]
	movq	%rdi, -8(%rbp)
	.loc	5 11 18 prologue_end    # lalala.cpp:11:18
.Ltmp47:
	popq	%rbp
	retq
.Ltmp48:
.Lfunc_end5:
	.size	_ZN1AD2Ev, .Lfunc_end5-_ZN1AD2Ev
	.cfi_endproc

	.section	.text._ZN1AD0Ev,"axG",@progbits,_ZN1AD0Ev,comdat
	.weak	_ZN1AD0Ev
	.align	16, 0x90
	.type	_ZN1AD0Ev,@function
_ZN1AD0Ev:                              # @_ZN1AD0Ev
.Lfunc_begin6:
	.loc	5 11 0                  # lalala.cpp:11:0
	.cfi_startproc
# BB#0:                                 # %entry
	pushq	%rbp
.Ltmp49:
	.cfi_def_cfa_offset 16
.Ltmp50:
	.cfi_offset %rbp, -16
	movq	%rsp, %rbp
.Ltmp51:
	.cfi_def_cfa_register %rbp
	pushq	%rbx
	pushq	%rax
.Ltmp52:
	.cfi_offset %rbx, -24
	movq	%rdi, %rbx
	#DEBUG_VALUE: ~A:this <- [%RBP+-16]
	movq	%rbx, -16(%rbp)
	.loc	5 11 17 prologue_end    # lalala.cpp:11:17
.Ltmp53:
	callq	_ZN1AD2Ev
	.loc	5 11 17 is_stmt 0 discriminator 1 # lalala.cpp:11:17
	movq	%rbx, %rdi
	callq	_ZdlPv
	.loc	5 11 18                 # lalala.cpp:11:18
	addq	$8, %rsp
	popq	%rbx
	popq	%rbp
	retq
.Ltmp54:
.Lfunc_end6:
	.size	_ZN1AD0Ev, .Lfunc_end6-_ZN1AD0Ev
	.cfi_endproc

	.section	.text._ZN1BC2Ei,"axG",@progbits,_ZN1BC2Ei,comdat
	.weak	_ZN1BC2Ei
	.align	16, 0x90
	.type	_ZN1BC2Ei,@function
_ZN1BC2Ei:                              # @_ZN1BC2Ei
.Lfunc_begin7:
	.loc	5 17 0 is_stmt 1        # lalala.cpp:17:0
	.cfi_startproc
# BB#0:                                 # %entry
	pushq	%rbp
.Ltmp55:
	.cfi_def_cfa_offset 16
.Ltmp56:
	.cfi_offset %rbp, -16
	movq	%rsp, %rbp
.Ltmp57:
	.cfi_def_cfa_register %rbp
	pushq	%r14
	pushq	%rbx
	subq	$16, %rsp
.Ltmp58:
	.cfi_offset %rbx, -32
.Ltmp59:
	.cfi_offset %r14, -24
	#DEBUG_VALUE: B:this <- [%RBP+-24]
	#DEBUG_VALUE: B:v <- [%RBP+-28]
	movq	%rdi, -24(%rbp)
	movl	%esi, -28(%rbp)
	movq	-24(%rbp), %rbx
	.loc	5 17 14 prologue_end    # lalala.cpp:17:14
.Ltmp60:
	movq	%rbx, %rdi
	callq	_ZN1AC2Ei
	.loc	5 17 23 is_stmt 0       # lalala.cpp:17:23
	movq	$_ZTV1B+16, (%rbx)
	.loc	5 17 19                 # lalala.cpp:17:19
	leaq	12(%rbx), %rsi
	.loc	5 17 21                 # lalala.cpp:17:21
	movl	-28(%rbp), %r14d
	.loc	5 17 19                 # lalala.cpp:17:19
	movl	$1, %edi
	movl	$.L.str.45, %edx
	movl	$.L.str.46, %ecx
	callq	trace
	movl	%r14d, 12(%rbx)
	.loc	5 17 24                 # lalala.cpp:17:24
	addq	$16, %rsp
	popq	%rbx
	popq	%r14
	popq	%rbp
	retq
.Ltmp61:
.Lfunc_end7:
	.size	_ZN1BC2Ei, .Lfunc_end7-_ZN1BC2Ei
	.cfi_endproc

	.section	.text._ZN1B5printEv,"axG",@progbits,_ZN1B5printEv,comdat
	.weak	_ZN1B5printEv
	.align	16, 0x90
	.type	_ZN1B5printEv,@function
_ZN1B5printEv:                          # @_ZN1B5printEv
.Lfunc_begin8:
	.loc	5 18 0 is_stmt 1        # lalala.cpp:18:0
	.cfi_startproc
# BB#0:                                 # %entry
	pushq	%rbp
.Ltmp62:
	.cfi_def_cfa_offset 16
.Ltmp63:
	.cfi_offset %rbp, -16
	movq	%rsp, %rbp
.Ltmp64:
	.cfi_def_cfa_register %rbp
	pushq	%r14
	pushq	%rbx
	subq	$16, %rsp
.Ltmp65:
	.cfi_offset %rbx, -32
.Ltmp66:
	.cfi_offset %r14, -24
	movq	%rdi, %rbx
	#DEBUG_VALUE: print:this <- [%RBP+-24]
	movq	%rbx, -24(%rbp)
	.loc	5 18 24 prologue_end    # lalala.cpp:18:24
.Ltmp67:
	leaq	12(%rbx), %rsi
	movl	$2, %edi
	movl	$.L.str.55, %edx
	movl	$.L.str.56, %ecx
	callq	trace
	movl	12(%rbx), %esi
	.loc	5 18 22 is_stmt 0       # lalala.cpp:18:22
	movl	$_ZSt4cout, %edi
	callq	_ZNSolsEi
	.loc	5 18 25 discriminator 1 # lalala.cpp:18:25
	movl	$.L.str, %esi
	movq	%rax, %rdi
	callq	_ZStlsISt11char_traitsIcEERSt13basic_ostreamIcT_ES5_PKc
	movq	%rax, %r14
	.loc	5 18 33                 # lalala.cpp:18:33
	leaq	8(%rbx), %rsi
	.loc	5 18 24                 # lalala.cpp:18:24
	movl	$2, %edi
	.loc	5 18 33                 # lalala.cpp:18:33
	movl	$.L.str.57, %edx
	movl	$.L.str.58, %ecx
	callq	trace
	movl	8(%rbx), %esi
	.loc	5 18 31 discriminator 2 # lalala.cpp:18:31
	movq	%r14, %rdi
	callq	_ZNSolsEi
	.loc	5 18 34 discriminator 3 # lalala.cpp:18:34
	movl	$_ZSt4endlIcSt11char_traitsIcEERSt13basic_ostreamIT_T0_ES6_, %esi
	movq	%rax, %rdi
	callq	_ZNSolsEPFRSoS_E
	.loc	5 18 41                 # lalala.cpp:18:41
	addq	$16, %rsp
	popq	%rbx
	popq	%r14
	popq	%rbp
	retq
.Ltmp68:
.Lfunc_end8:
	.size	_ZN1B5printEv, .Lfunc_end8-_ZN1B5printEv
	.cfi_endproc

	.section	.text._ZN1BD2Ev,"axG",@progbits,_ZN1BD2Ev,comdat
	.weak	_ZN1BD2Ev
	.align	16, 0x90
	.type	_ZN1BD2Ev,@function
_ZN1BD2Ev:                              # @_ZN1BD2Ev
.Lfunc_begin9:
	.loc	5 15 0 is_stmt 1        # lalala.cpp:15:0
	.cfi_startproc
# BB#0:                                 # %entry
	pushq	%rbp
.Ltmp69:
	.cfi_def_cfa_offset 16
.Ltmp70:
	.cfi_offset %rbp, -16
	movq	%rsp, %rbp
.Ltmp71:
	.cfi_def_cfa_register %rbp
	subq	$16, %rsp
	#DEBUG_VALUE: ~B:this <- [%RBP+-8]
	movq	%rdi, -8(%rbp)
	.loc	5 15 7 prologue_end     # lalala.cpp:15:7
.Ltmp72:
	callq	_ZN1AD2Ev
.Ltmp73:
	.loc	5 15 7 is_stmt 0        # lalala.cpp:15:7
	addq	$16, %rsp
	popq	%rbp
	retq
.Ltmp74:
.Lfunc_end9:
	.size	_ZN1BD2Ev, .Lfunc_end9-_ZN1BD2Ev
	.cfi_endproc

	.section	.text._ZN1BD0Ev,"axG",@progbits,_ZN1BD0Ev,comdat
	.weak	_ZN1BD0Ev
	.align	16, 0x90
	.type	_ZN1BD0Ev,@function
_ZN1BD0Ev:                              # @_ZN1BD0Ev
.Lfunc_begin10:
	.loc	5 15 0 is_stmt 1        # lalala.cpp:15:0
	.cfi_startproc
# BB#0:                                 # %entry
	pushq	%rbp
.Ltmp75:
	.cfi_def_cfa_offset 16
.Ltmp76:
	.cfi_offset %rbp, -16
	movq	%rsp, %rbp
.Ltmp77:
	.cfi_def_cfa_register %rbp
	pushq	%rbx
	pushq	%rax
.Ltmp78:
	.cfi_offset %rbx, -24
	movq	%rdi, %rbx
	#DEBUG_VALUE: ~B:this <- [%RBP+-16]
	movq	%rbx, -16(%rbp)
	.loc	5 15 7 prologue_end     # lalala.cpp:15:7
.Ltmp79:
	callq	_ZN1BD2Ev
	.loc	5 15 7 is_stmt 0 discriminator 1 # lalala.cpp:15:7
	movq	%rbx, %rdi
	callq	_ZdlPv
	.loc	5 15 7                  # lalala.cpp:15:7
	addq	$8, %rsp
	popq	%rbx
	popq	%rbp
	retq
.Ltmp80:
.Lfunc_end10:
	.size	_ZN1BD0Ev, .Lfunc_end10-_ZN1BD0Ev
	.cfi_endproc

	.section	.text._ZN1MC2Ei,"axG",@progbits,_ZN1MC2Ei,comdat
	.weak	_ZN1MC2Ei
	.align	16, 0x90
	.type	_ZN1MC2Ei,@function
_ZN1MC2Ei:                              # @_ZN1MC2Ei
.Lfunc_begin11:
	.loc	5 24 0 is_stmt 1        # lalala.cpp:24:0
	.cfi_startproc
# BB#0:                                 # %entry
	pushq	%rbp
.Ltmp81:
	.cfi_def_cfa_offset 16
.Ltmp82:
	.cfi_offset %rbp, -16
	movq	%rsp, %rbp
.Ltmp83:
	.cfi_def_cfa_register %rbp
	pushq	%r14
	pushq	%rbx
	subq	$32, %rsp
.Ltmp84:
	.cfi_offset %rbx, -32
.Ltmp85:
	.cfi_offset %r14, -24
	movl	%esi, %r14d
	#DEBUG_VALUE: M:v <- [%RBP+-28]
	#DEBUG_VALUE: M:this <- [%RBP+-24]
	movq	%rdi, -24(%rbp)
	movl	%r14d, -28(%rbp)
	movq	-24(%rbp), %rbx
	.loc	5 24 14 prologue_end    # lalala.cpp:24:14
.Ltmp86:
	movl	$1, %edi
	movl	$.L.str.47, %edx
	movl	$.L.str.48, %ecx
	movq	%rbx, %rsi
	callq	trace
	movl	%r14d, (%rbx)
	.loc	5 27 13                 # lalala.cpp:27:13
	addq	$8, %rbx
	.loc	5 27 15 is_stmt 0       # lalala.cpp:27:15
	xorl	%esi, %esi
	movq	%rbx, %rdi
	callq	_ZN1BC2Ei
	.loc	5 24 24 is_stmt 1       # lalala.cpp:24:24
.Ltmp87:
	movl	-28(%rbp), %esi
	leaq	-48(%rbp), %r14
	.loc	5 24 22 is_stmt 0       # lalala.cpp:24:22
	movq	%r14, %rdi
	callq	_ZN1BC2Ei
	.loc	5 24 21 discriminator 1 # lalala.cpp:24:21
	movq	%rbx, %rdi
	movq	%r14, %rsi
	callq	_ZN1BaSERKS_
	.loc	5 24 20 discriminator 2 # lalala.cpp:24:20
	movq	%r14, %rdi
	callq	_ZN1BD2Ev
.Ltmp88:
	.loc	5 24 27                 # lalala.cpp:24:27
	addq	$32, %rsp
	popq	%rbx
	popq	%r14
	popq	%rbp
	retq
.Ltmp89:
.Lfunc_end11:
	.size	_ZN1MC2Ei, .Lfunc_end11-_ZN1MC2Ei
	.cfi_endproc

	.section	.text._ZN1BaSERKS_,"axG",@progbits,_ZN1BaSERKS_,comdat
	.weak	_ZN1BaSERKS_
	.align	16, 0x90
	.type	_ZN1BaSERKS_,@function
_ZN1BaSERKS_:                           # @_ZN1BaSERKS_
.Lfunc_begin12:
	.loc	5 15 0 is_stmt 1        # lalala.cpp:15:0
	.cfi_startproc
# BB#0:                                 # %entry
	pushq	%rbp
.Ltmp90:
	.cfi_def_cfa_offset 16
.Ltmp91:
	.cfi_offset %rbp, -16
	movq	%rsp, %rbp
.Ltmp92:
	.cfi_def_cfa_register %rbp
	pushq	%r14
	pushq	%rbx
	subq	$16, %rsp
.Ltmp93:
	.cfi_offset %rbx, -32
.Ltmp94:
	.cfi_offset %r14, -24
	#DEBUG_VALUE: operator=:this <- [%RBP+-24]
	#DEBUG_VALUE: operator=: <- [%RBP+-32]
	movq	%rdi, -24(%rbp)
	movq	%rsi, -32(%rbp)
	movq	-24(%rbp), %rbx
	.loc	5 15 7 prologue_end     # lalala.cpp:15:7
.Ltmp95:
	movq	%rbx, %rdi
	callq	_ZN1AaSERKS_
	movq	-32(%rbp), %r14
	leaq	12(%r14), %rsi
	movl	$2, %edi
	movl	$.L.str.59, %edx
	movl	$.L.str.60, %ecx
	callq	trace
	movl	12(%r14), %eax
	movl	%eax, 12(%rbx)
	movq	%rbx, %rax
	addq	$16, %rsp
	popq	%rbx
	popq	%r14
	popq	%rbp
	retq
.Ltmp96:
.Lfunc_end12:
	.size	_ZN1BaSERKS_, .Lfunc_end12-_ZN1BaSERKS_
	.cfi_endproc

	.section	.text._ZN1AaSERKS_,"axG",@progbits,_ZN1AaSERKS_,comdat
	.weak	_ZN1AaSERKS_
	.align	16, 0x90
	.type	_ZN1AaSERKS_,@function
_ZN1AaSERKS_:                           # @_ZN1AaSERKS_
.Lfunc_begin13:
	.loc	5 6 0                   # lalala.cpp:6:0
	.cfi_startproc
# BB#0:                                 # %entry
	pushq	%rbp
.Ltmp97:
	.cfi_def_cfa_offset 16
.Ltmp98:
	.cfi_offset %rbp, -16
	movq	%rsp, %rbp
.Ltmp99:
	.cfi_def_cfa_register %rbp
	pushq	%r14
	pushq	%rbx
	subq	$16, %rsp
.Ltmp100:
	.cfi_offset %rbx, -32
.Ltmp101:
	.cfi_offset %r14, -24
	movq	%rsi, %rbx
	#DEBUG_VALUE: operator=: <- [%RBP+-32]
	#DEBUG_VALUE: operator=:this <- [%RBP+-24]
	movq	%rdi, -24(%rbp)
	movq	%rbx, -32(%rbp)
	movq	-24(%rbp), %r14
	.loc	5 6 7 prologue_end      # lalala.cpp:6:7
.Ltmp102:
	leaq	8(%rbx), %rsi
	movl	$2, %edi
	movl	$.L.str.61, %edx
	movl	$.L.str.62, %ecx
	callq	trace
	movl	8(%rbx), %ebx
	leaq	8(%r14), %rsi
	movl	$1, %edi
	movl	$.L.str.63, %edx
	movl	$.L.str.64, %ecx
	callq	trace
	movl	%ebx, 8(%r14)
	movq	%r14, %rax
	addq	$16, %rsp
	popq	%rbx
	popq	%r14
	popq	%rbp
	retq
.Ltmp103:
.Lfunc_end13:
	.size	_ZN1AaSERKS_, .Lfunc_end13-_ZN1AaSERKS_
	.cfi_endproc

	.section	.text._ZN1M5printEv,"axG",@progbits,_ZN1M5printEv,comdat
	.weak	_ZN1M5printEv
	.align	16, 0x90
	.type	_ZN1M5printEv,@function
_ZN1M5printEv:                          # @_ZN1M5printEv
.Lfunc_begin14:
	.loc	5 28 0                  # lalala.cpp:28:0
	.cfi_startproc
# BB#0:                                 # %entry
	pushq	%rbp
.Ltmp104:
	.cfi_def_cfa_offset 16
.Ltmp105:
	.cfi_offset %rbp, -16
	movq	%rsp, %rbp
.Ltmp106:
	.cfi_def_cfa_register %rbp
	pushq	%r14
	pushq	%rbx
	subq	$16, %rsp
.Ltmp107:
	.cfi_offset %rbx, -32
.Ltmp108:
	.cfi_offset %r14, -24
	movq	%rdi, %rbx
	#DEBUG_VALUE: print:this <- [%RBP+-24]
	movq	%rbx, -24(%rbp)
	.loc	5 28 24 prologue_end    # lalala.cpp:28:24
.Ltmp109:
	movl	$2, %edi
	movl	$.L.str.49, %edx
	movl	$.L.str.50, %ecx
	movq	%rbx, %rsi
	callq	trace
	movl	(%rbx), %esi
	.loc	5 28 22 is_stmt 0       # lalala.cpp:28:22
	movl	$_ZSt4cout, %edi
	callq	_ZNSolsEi
	.loc	5 28 25 discriminator 1 # lalala.cpp:28:25
	movl	$.L.str, %esi
	movq	%rax, %rdi
	callq	_ZStlsISt11char_traitsIcEERSt13basic_ostreamIcT_ES5_PKc
	movq	%rax, %r14
	.loc	5 28 35                 # lalala.cpp:28:35
	leaq	20(%rbx), %rsi
	.loc	5 28 24                 # lalala.cpp:28:24
	movl	$2, %edi
	.loc	5 28 35                 # lalala.cpp:28:35
	movl	$.L.str.51, %edx
	movl	$.L.str.52, %ecx
	callq	trace
	movl	20(%rbx), %esi
	.loc	5 28 31 discriminator 2 # lalala.cpp:28:31
	movq	%r14, %rdi
	callq	_ZNSolsEi
	.loc	5 28 36 discriminator 3 # lalala.cpp:28:36
	movl	$_ZSt4endlIcSt11char_traitsIcEERSt13basic_ostreamIT_T0_ES6_, %esi
	movq	%rax, %rdi
	callq	_ZNSolsEPFRSoS_E
	.loc	5 28 43                 # lalala.cpp:28:43
	addq	$16, %rsp
	popq	%rbx
	popq	%r14
	popq	%rbp
	retq
.Ltmp110:
.Lfunc_end14:
	.size	_ZN1M5printEv, .Lfunc_end14-_ZN1M5printEv
	.cfi_endproc

	.section	.text._ZN1MD2Ev,"axG",@progbits,_ZN1MD2Ev,comdat
	.weak	_ZN1MD2Ev
	.align	16, 0x90
	.type	_ZN1MD2Ev,@function
_ZN1MD2Ev:                              # @_ZN1MD2Ev
.Lfunc_begin15:
	.loc	5 22 0 is_stmt 1        # lalala.cpp:22:0
	.cfi_startproc
# BB#0:                                 # %entry
	pushq	%rbp
.Ltmp111:
	.cfi_def_cfa_offset 16
.Ltmp112:
	.cfi_offset %rbp, -16
	movq	%rsp, %rbp
.Ltmp113:
	.cfi_def_cfa_register %rbp
	subq	$16, %rsp
	#DEBUG_VALUE: ~M:this <- [%RBP+-8]
	movq	%rdi, -8(%rbp)
	.loc	5 22 7 prologue_end     # lalala.cpp:22:7
.Ltmp114:
	addq	$8, %rdi
	callq	_ZN1BD2Ev
.Ltmp115:
	.loc	5 22 7 is_stmt 0        # lalala.cpp:22:7
	addq	$16, %rsp
	popq	%rbp
	retq
.Ltmp116:
.Lfunc_end15:
	.size	_ZN1MD2Ev, .Lfunc_end15-_ZN1MD2Ev
	.cfi_endproc

	.text
	.globl	trace_logger_init
	.align	16, 0x90
	.type	trace_logger_init,@function
trace_logger_init:                      # @trace_logger_init
.Lfunc_begin16:
	.cfi_startproc
# BB#0:                                 # %entry
	pushq	%rbp
.Ltmp117:
	.cfi_def_cfa_offset 16
.Ltmp118:
	.cfi_offset %rbp, -16
	movq	%rsp, %rbp
.Ltmp119:
	.cfi_def_cfa_register %rbp
	movl	$.L.str.65, %edi
	movl	$.L.str.1.66, %esi
	callq	fopen
	movq	%rax, full_trace_file(%rip)
	testq	%rax, %rax
	je	.LBB16_1
# BB#2:                                 # %if.end
	movl	$trace_logger_fin, %edi
	popq	%rbp
	jmp	atexit                  # TAILCALL
.LBB16_1:                               # %if.then
	movl	$.L.str.2.67, %edi
	callq	perror
	movl	$-1, %edi
	callq	exit
.Lfunc_end16:
	.size	trace_logger_init, .Lfunc_end16-trace_logger_init
	.cfi_endproc

	.globl	trace_logger_fin
	.align	16, 0x90
	.type	trace_logger_fin,@function
trace_logger_fin:                       # @trace_logger_fin
.Lfunc_begin17:
	.cfi_startproc
# BB#0:                                 # %entry
	pushq	%rbp
.Ltmp120:
	.cfi_def_cfa_offset 16
.Ltmp121:
	.cfi_offset %rbp, -16
	movq	%rsp, %rbp
.Ltmp122:
	.cfi_def_cfa_register %rbp
	movq	full_trace_file(%rip), %rdi
	popq	%rbp
	jmp	fclose                  # TAILCALL
.Lfunc_end17:
	.size	trace_logger_fin, .Lfunc_end17-trace_logger_fin
	.cfi_endproc

	.globl	trace
	.align	16, 0x90
	.type	trace,@function
trace:                                  # @trace
.Lfunc_begin18:
	.cfi_startproc
# BB#0:                                 # %entry
	pushq	%rbp
.Ltmp123:
	.cfi_def_cfa_offset 16
.Ltmp124:
	.cfi_offset %rbp, -16
	movq	%rsp, %rbp
.Ltmp125:
	.cfi_def_cfa_register %rbp
	pushq	%r15
	pushq	%r14
	pushq	%r13
	pushq	%r12
	pushq	%rbx
	subq	$24, %rsp
.Ltmp126:
	.cfi_offset %rbx, -56
.Ltmp127:
	.cfi_offset %r12, -48
.Ltmp128:
	.cfi_offset %r13, -40
.Ltmp129:
	.cfi_offset %r14, -32
.Ltmp130:
	.cfi_offset %r15, -24
	movq	%rcx, %r14
	movq	%rdx, %r15
	movq	%rsi, %r13
	movl	%edi, %ebx
	cmpl	$0, initp(%rip)
	jne	.LBB18_2
# BB#1:                                 # %if.then
	callq	trace_logger_init
	movl	$1, initp(%rip)
.LBB18_2:                               # %if.end
	cmpl	$3, %ebx
                                        # implicit-def: %R12
	ja	.LBB18_4
# BB#3:                                 # %switch.lookup
	movslq	%ebx, %rax
	movq	.Lswitch.table(,%rax,8), %r12
.LBB18_4:                               # %sw.epilog
	leaq	-56(%rbp), %rdi
	xorl	%esi, %esi
	callq	gettimeofday
	imulq	$1000000, -56(%rbp), %rax # imm = 0xF4240
	addq	-48(%rbp), %rax
	movq	full_trace_file(%rip), %rdi
	movq	%rax, (%rsp)
	movl	$.L.str.7.74, %esi
	xorl	%eax, %eax
	movq	%r12, %rdx
	movq	%r13, %rcx
	movq	%r15, %r8
	movq	%r14, %r9
	callq	fprintf
	addq	$24, %rsp
	popq	%rbx
	popq	%r12
	popq	%r13
	popq	%r14
	popq	%r15
	popq	%rbp
	retq
.Lfunc_end18:
	.size	trace, .Lfunc_end18-trace
	.cfi_endproc

	.type	c1,@object              # @c1
	.data
	.globl	c1
	.align	4
c1:
	.long	100                     # 0x64
	.long	1120416563              # float 100.099998
	.size	c1, 8

	.section	.init_array,"aw",@init_array
	.align	8
	.quad	_GLOBAL__sub_I_lalala.cpp
	.type	_ZStL8__ioinit,@object  # @_ZStL8__ioinit
	.local	_ZStL8__ioinit
	.comm	_ZStL8__ioinit,1,1
	.type	.L.str.1,@object        # @.str.1
	.section	.rodata,"a",@progbits
.L.str.1:
	.asciz	"retval"
	.size	.L.str.1, 7

	.type	.L.str.2,@object        # @.str.2
.L.str.2:
	.asciz	"i32*"
	.size	.L.str.2, 5

	.type	_ZTV1A,@object          # @_ZTV1A
	.section	.rodata._ZTV1A,"aG",@progbits,_ZTV1A,comdat
	.weak	_ZTV1A
	.align	8
_ZTV1A:
	.quad	0
	.quad	_ZTI1A
	.quad	_ZN1A5printEv
	.quad	_ZN1AD2Ev
	.quad	_ZN1AD0Ev
	.size	_ZTV1A, 40

	.type	_ZTI1A,@object          # @_ZTI1A
	.section	.rodata._ZTI1A,"aG",@progbits,_ZTI1A,comdat
	.weak	_ZTI1A
	.align	8
_ZTI1A:
	.quad	_ZTVN10__cxxabiv117__class_type_infoE+16
	.quad	_ZTS1A
	.size	_ZTI1A, 16

	.type	_ZTS1A,@object          # @_ZTS1A
	.section	.rodata._ZTS1A,"aG",@progbits,_ZTS1A,comdat
	.weak	_ZTS1A
_ZTS1A:
	.asciz	"1A"
	.size	_ZTS1A, 3

	.type	.L.str.53,@object       # @.str.53
	.section	.rodata,"a",@progbits
.L.str.53:
	.asciz	"a"
	.size	.L.str.53, 2

	.type	.L.str.54,@object       # @.str.54
.L.str.54:
	.asciz	"%class.A*"
	.size	.L.str.54, 10

	.type	.L.str.43,@object       # @.str.43
.L.str.43:
	.asciz	"a"
	.size	.L.str.43, 2

	.type	.L.str.44,@object       # @.str.44
.L.str.44:
	.asciz	"%class.A*"
	.size	.L.str.44, 10

	.type	_ZTV1B,@object          # @_ZTV1B
	.section	.rodata._ZTV1B,"aG",@progbits,_ZTV1B,comdat
	.weak	_ZTV1B
	.align	8
_ZTV1B:
	.quad	0
	.quad	_ZTI1B
	.quad	_ZN1B5printEv
	.quad	_ZN1BD2Ev
	.quad	_ZN1BD0Ev
	.size	_ZTV1B, 40

	.type	_ZTI1B,@object          # @_ZTI1B
	.section	.rodata._ZTI1B,"aG",@progbits,_ZTI1B,comdat
	.weak	_ZTI1B
	.align	16
_ZTI1B:
	.quad	_ZTVN10__cxxabiv120__si_class_type_infoE+16
	.quad	_ZTS1B
	.quad	_ZTI1A
	.size	_ZTI1B, 24

	.type	_ZTS1B,@object          # @_ZTS1B
	.section	.rodata._ZTS1B,"aG",@progbits,_ZTS1B,comdat
	.weak	_ZTS1B
_ZTS1B:
	.asciz	"1B"
	.size	_ZTS1B, 3

	.type	.L.str.55,@object       # @.str.55
	.section	.rodata,"a",@progbits
.L.str.55:
	.asciz	"b"
	.size	.L.str.55, 2

	.type	.L.str.56,@object       # @.str.56
.L.str.56:
	.asciz	"%class.B*"
	.size	.L.str.56, 10

	.type	.L.str,@object          # @.str
	.section	.rodata.str1.1,"aMS",@progbits,1
.L.str:
	.asciz	"  "
	.size	.L.str, 3

	.type	.L.str.57,@object       # @.str.57
	.section	.rodata,"a",@progbits
.L.str.57:
	.asciz	"a"
	.size	.L.str.57, 2

	.type	.L.str.58,@object       # @.str.58
.L.str.58:
	.asciz	"%class.A*"
	.size	.L.str.58, 10

	.type	.L.str.45,@object       # @.str.45
.L.str.45:
	.asciz	"b"
	.size	.L.str.45, 2

	.type	.L.str.46,@object       # @.str.46
.L.str.46:
	.asciz	"%class.B*"
	.size	.L.str.46, 10

	.type	.L.str.47,@object       # @.str.47
.L.str.47:
	.asciz	"c"
	.size	.L.str.47, 2

	.type	.L.str.48,@object       # @.str.48
.L.str.48:
	.asciz	"%class.M*"
	.size	.L.str.48, 10

	.type	.L.str.61,@object       # @.str.61
.L.str.61:
	.asciz	"a"
	.size	.L.str.61, 2

	.type	.L.str.62,@object       # @.str.62
.L.str.62:
	.asciz	"%class.A*"
	.size	.L.str.62, 10

	.type	.L.str.63,@object       # @.str.63
.L.str.63:
	.asciz	"a"
	.size	.L.str.63, 2

	.type	.L.str.64,@object       # @.str.64
.L.str.64:
	.asciz	"%class.A*"
	.size	.L.str.64, 10

	.type	.L.str.59,@object       # @.str.59
.L.str.59:
	.asciz	"b"
	.size	.L.str.59, 2

	.type	.L.str.60,@object       # @.str.60
.L.str.60:
	.asciz	"%class.B*"
	.size	.L.str.60, 10

	.type	.L.str.3,@object        # @.str.3
.L.str.3:
	.asciz	"e"
	.size	.L.str.3, 2

	.type	.L.str.4,@object        # @.str.4
.L.str.4:
	.asciz	"%class.M**"
	.size	.L.str.4, 11

	.type	.L.str.5,@object        # @.str.5
.L.str.5:
	.asciz	"base"
	.size	.L.str.5, 5

	.type	.L.str.6,@object        # @.str.6
.L.str.6:
	.asciz	"%class.A**"
	.size	.L.str.6, 11

	.type	.L.str.7,@object        # @.str.7
.L.str.7:
	.asciz	"a"
	.size	.L.str.7, 2

	.type	.L.str.8,@object        # @.str.8
.L.str.8:
	.asciz	"%class.A*"
	.size	.L.str.8, 10

	.type	.L.str.9,@object        # @.str.9
.L.str.9:
	.asciz	"a"
	.size	.L.str.9, 2

	.type	.L.str.10,@object       # @.str.10
.L.str.10:
	.asciz	"%class.A*"
	.size	.L.str.10, 10

	.type	.L.str.11,@object       # @.str.11
.L.str.11:
	.asciz	"b"
	.size	.L.str.11, 2

	.type	.L.str.12,@object       # @.str.12
.L.str.12:
	.asciz	"%class.B*"
	.size	.L.str.12, 10

	.type	.L.str.13,@object       # @.str.13
.L.str.13:
	.asciz	"x"
	.size	.L.str.13, 2

	.type	.L.str.14,@object       # @.str.14
.L.str.14:
	.asciz	"%class.B*"
	.size	.L.str.14, 10

	.type	.L.str.15,@object       # @.str.15
.L.str.15:
	.asciz	"c"
	.size	.L.str.15, 2

	.type	.L.str.16,@object       # @.str.16
.L.str.16:
	.asciz	"%class.M*"
	.size	.L.str.16, 10

	.type	.L.str.17,@object       # @.str.17
.L.str.17:
	.asciz	"c"
	.size	.L.str.17, 2

	.type	.L.str.18,@object       # @.str.18
.L.str.18:
	.asciz	"%class.M*"
	.size	.L.str.18, 10

	.type	.L.str.19,@object       # @.str.19
.L.str.19:
	.asciz	"c"
	.size	.L.str.19, 2

	.type	.L.str.20,@object       # @.str.20
.L.str.20:
	.asciz	"%class.M*"
	.size	.L.str.20, 10

	.type	.L.str.21,@object       # @.str.21
.L.str.21:
	.asciz	"c"
	.size	.L.str.21, 2

	.type	.L.str.22,@object       # @.str.22
.L.str.22:
	.asciz	"%class.M*"
	.size	.L.str.22, 10

	.type	.L.str.23,@object       # @.str.23
.L.str.23:
	.asciz	"i"
	.size	.L.str.23, 2

	.type	.L.str.24,@object       # @.str.24
.L.str.24:
	.asciz	"i32*"
	.size	.L.str.24, 5

	.type	.L.str.25,@object       # @.str.25
.L.str.25:
	.asciz	"i"
	.size	.L.str.25, 2

	.type	.L.str.26,@object       # @.str.26
.L.str.26:
	.asciz	"i32*"
	.size	.L.str.26, 5

	.type	.L.str.27,@object       # @.str.27
.L.str.27:
	.asciz	"e"
	.size	.L.str.27, 2

	.type	.L.str.28,@object       # @.str.28
.L.str.28:
	.asciz	"%class.M**"
	.size	.L.str.28, 11

	.type	.L.str.29,@object       # @.str.29
.L.str.29:
	.asciz	"e"
	.size	.L.str.29, 2

	.type	.L.str.30,@object       # @.str.30
.L.str.30:
	.asciz	"%class.M**"
	.size	.L.str.30, 11

	.type	.L.str.31,@object       # @.str.31
.L.str.31:
	.asciz	"i"
	.size	.L.str.31, 2

	.type	.L.str.32,@object       # @.str.32
.L.str.32:
	.asciz	"i32*"
	.size	.L.str.32, 5

	.type	.L.str.33,@object       # @.str.33
.L.str.33:
	.asciz	"i"
	.size	.L.str.33, 2

	.type	.L.str.34,@object       # @.str.34
.L.str.34:
	.asciz	"i32*"
	.size	.L.str.34, 5

	.type	.L.str.35,@object       # @.str.35
.L.str.35:
	.asciz	"base"
	.size	.L.str.35, 5

	.type	.L.str.36,@object       # @.str.36
.L.str.36:
	.asciz	"%class.A**"
	.size	.L.str.36, 11

	.type	.L.str.49,@object       # @.str.49
.L.str.49:
	.asciz	"c"
	.size	.L.str.49, 2

	.type	.L.str.50,@object       # @.str.50
.L.str.50:
	.asciz	"%class.M*"
	.size	.L.str.50, 10

	.type	.L.str.51,@object       # @.str.51
.L.str.51:
	.asciz	"b"
	.size	.L.str.51, 2

	.type	.L.str.52,@object       # @.str.52
.L.str.52:
	.asciz	"%class.B*"
	.size	.L.str.52, 10

	.type	.L.str.37,@object       # @.str.37
.L.str.37:
	.asciz	"e"
	.size	.L.str.37, 2

	.type	.L.str.38,@object       # @.str.38
.L.str.38:
	.asciz	"%class.M**"
	.size	.L.str.38, 11

	.type	.L.str.39,@object       # @.str.39
.L.str.39:
	.asciz	"e"
	.size	.L.str.39, 2

	.type	.L.str.40,@object       # @.str.40
.L.str.40:
	.asciz	"%class.M**"
	.size	.L.str.40, 11

	.type	.L.str.41,@object       # @.str.41
.L.str.41:
	.asciz	"retval"
	.size	.L.str.41, 7

	.type	.L.str.42,@object       # @.str.42
.L.str.42:
	.asciz	"i32*"
	.size	.L.str.42, 5

	.type	initp,@object           # @initp
	.bss
	.globl	initp
	.align	4
initp:
	.long	0                       # 0x0
	.size	initp, 4

	.type	full_trace_file,@object # @full_trace_file
	.comm	full_trace_file,8,8
	.type	.L.str.65,@object       # @.str.65
	.section	.rodata.str1.1,"aMS",@progbits,1
.L.str.65:
	.asciz	"dynamic_trace.txt"
	.size	.L.str.65, 18

	.type	.L.str.1.66,@object     # @.str.1.66
.L.str.1.66:
	.asciz	"a"
	.size	.L.str.1.66, 2

	.type	.L.str.2.67,@object     # @.str.2.67
.L.str.2.67:
	.asciz	"Failed to open logfile \"dynamic_trace\""
	.size	.L.str.2.67, 39

	.type	.Lswitch.table,@object  # @switch.table
	.section	.rodata,"a",@progbits
	.align	16
.Lswitch.table:
	.quad	.L.str.3.70
	.quad	.L.str.4.71
	.quad	.L.str.5.72
	.quad	.L.str.6.73
	.size	.Lswitch.table, 32

	.type	.L.str.3.70,@object     # @.str.3.70
	.section	.rodata.str1.1,"aMS",@progbits,1
.L.str.3.70:
	.asciz	"Allocate"
	.size	.L.str.3.70, 9

	.type	.L.str.4.71,@object     # @.str.4.71
.L.str.4.71:
	.asciz	"Store"
	.size	.L.str.4.71, 6

	.type	.L.str.5.72,@object     # @.str.5.72
.L.str.5.72:
	.asciz	"Load"
	.size	.L.str.5.72, 5

	.type	.L.str.6.73,@object     # @.str.6.73
.L.str.6.73:
	.asciz	"Delete"
	.size	.L.str.6.73, 7

	.type	.L.str.7.74,@object     # @.str.7.74
.L.str.7.74:
	.asciz	"\n%s,%ld,%s,%s,%ld\n"
	.size	.L.str.7.74, 19

	.file	15 "<stdin>"
	.section	".note.GNU-stack","",@progbits